
bin\Debug\Timer.elf:     file format elf32-avr

Sections:
Idx Name          Size      VMA       LMA       File off  Algn
  0 .text         00000106  00000000  00000000  00000094  2**1
                  CONTENTS, ALLOC, LOAD, READONLY, CODE
  1 .bss          00000002  00800100  00800100  0000019a  2**0
                  ALLOC
  2 .fuse         00000003  00820000  00820000  0000019a  2**0
                  CONTENTS, ALLOC, LOAD, DATA
  3 .debug_aranges 00000020  00000000  00000000  0000019d  2**0
                  CONTENTS, READONLY, DEBUGGING
  4 .debug_pubnames 00000055  00000000  00000000  000001bd  2**0
                  CONTENTS, READONLY, DEBUGGING
  5 .debug_info   0000014f  00000000  00000000  00000212  2**0
                  CONTENTS, READONLY, DEBUGGING
  6 .debug_abbrev 000000e1  00000000  00000000  00000361  2**0
                  CONTENTS, READONLY, DEBUGGING
  7 .debug_line   0000014b  00000000  00000000  00000442  2**0
                  CONTENTS, READONLY, DEBUGGING
  8 .debug_frame  00000030  00000000  00000000  00000590  2**2
                  CONTENTS, READONLY, DEBUGGING
  9 .debug_str    000000bd  00000000  00000000  000005c0  2**0
                  CONTENTS, READONLY, DEBUGGING

Disassembly of section .text:

00000000 <__vectors>:
   0:	0c 94 34 00 	jmp	0x68	; 0x68 <__ctors_end>
   4:	0c 94 46 00 	jmp	0x8c	; 0x8c <__bad_interrupt>
   8:	0c 94 46 00 	jmp	0x8c	; 0x8c <__bad_interrupt>
   c:	0c 94 46 00 	jmp	0x8c	; 0x8c <__bad_interrupt>
  10:	0c 94 46 00 	jmp	0x8c	; 0x8c <__bad_interrupt>
  14:	0c 94 46 00 	jmp	0x8c	; 0x8c <__bad_interrupt>
  18:	0c 94 46 00 	jmp	0x8c	; 0x8c <__bad_interrupt>
  1c:	0c 94 46 00 	jmp	0x8c	; 0x8c <__bad_interrupt>
  20:	0c 94 46 00 	jmp	0x8c	; 0x8c <__bad_interrupt>
  24:	0c 94 46 00 	jmp	0x8c	; 0x8c <__bad_interrupt>
  28:	0c 94 46 00 	jmp	0x8c	; 0x8c <__bad_interrupt>
  2c:	0c 94 46 00 	jmp	0x8c	; 0x8c <__bad_interrupt>
  30:	0c 94 46 00 	jmp	0x8c	; 0x8c <__bad_interrupt>
  34:	0c 94 46 00 	jmp	0x8c	; 0x8c <__bad_interrupt>
  38:	0c 94 46 00 	jmp	0x8c	; 0x8c <__bad_interrupt>
  3c:	0c 94 46 00 	jmp	0x8c	; 0x8c <__bad_interrupt>
  40:	0c 94 6a 00 	jmp	0xd4	; 0xd4 <__vector_16>
  44:	0c 94 46 00 	jmp	0x8c	; 0x8c <__bad_interrupt>
  48:	0c 94 46 00 	jmp	0x8c	; 0x8c <__bad_interrupt>
  4c:	0c 94 46 00 	jmp	0x8c	; 0x8c <__bad_interrupt>
  50:	0c 94 46 00 	jmp	0x8c	; 0x8c <__bad_interrupt>
  54:	0c 94 46 00 	jmp	0x8c	; 0x8c <__bad_interrupt>
  58:	0c 94 46 00 	jmp	0x8c	; 0x8c <__bad_interrupt>
  5c:	0c 94 46 00 	jmp	0x8c	; 0x8c <__bad_interrupt>
  60:	0c 94 46 00 	jmp	0x8c	; 0x8c <__bad_interrupt>
  64:	0c 94 46 00 	jmp	0x8c	; 0x8c <__bad_interrupt>

00000068 <__ctors_end>:
  68:	11 24       	eor	r1, r1
  6a:	1f be       	out	0x3f, r1	; 63
  6c:	cf ef       	ldi	r28, 0xFF	; 255
  6e:	d8 e0       	ldi	r29, 0x08	; 8
  70:	de bf       	out	0x3e, r29	; 62
  72:	cd bf       	out	0x3d, r28	; 61

00000074 <__do_clear_bss>:
  74:	11 e0       	ldi	r17, 0x01	; 1
  76:	a0 e0       	ldi	r26, 0x00	; 0
  78:	b1 e0       	ldi	r27, 0x01	; 1
  7a:	01 c0       	rjmp	.+2      	; 0x7e <.do_clear_bss_start>

0000007c <.do_clear_bss_loop>:
  7c:	1d 92       	st	X+, r1

0000007e <.do_clear_bss_start>:
  7e:	a2 30       	cpi	r26, 0x02	; 2
  80:	b1 07       	cpc	r27, r17
  82:	e1 f7       	brne	.-8      	; 0x7c <.do_clear_bss_loop>
  84:	0e 94 48 00 	call	0x90	; 0x90 <main>
  88:	0c 94 81 00 	jmp	0x102	; 0x102 <_exit>

0000008c <__bad_interrupt>:
  8c:	0c 94 00 00 	jmp	0	; 0x0 <__vectors>

00000090 <main>:

unsigned volatile overflow;
int main(void)
{

    PORTD |= (1<<PD6);
  90:	5e 9a       	sbi	0x0b, 6	; 11
    TCCR0B |= (1<<CS02);
  92:	85 b5       	in	r24, 0x25	; 37
  94:	84 60       	ori	r24, 0x04	; 4
  96:	85 bd       	out	0x25, r24	; 37
    TCNT0 = 0;
  98:	16 bc       	out	0x26, r1	; 38
    overflow = 0;
  9a:	10 92 01 01 	sts	0x0101, r1
  9e:	10 92 00 01 	sts	0x0100, r1
    TIMSK0 |= (1<<TOIE0);
  a2:	80 91 6e 00 	lds	r24, 0x006E
  a6:	81 60       	ori	r24, 0x01	; 1
  a8:	80 93 6e 00 	sts	0x006E, r24
    sei();
  ac:	78 94       	sei


    while(1){
        if(overflow >= 12){
            if(TCNT0 >= 52){
                PORTD ^= (1<<PD6);
  ae:	20 e4       	ldi	r18, 0x40	; 64
    TIMSK0 |= (1<<TOIE0);
    sei();


    while(1){
        if(overflow >= 12){
  b0:	80 91 00 01 	lds	r24, 0x0100
  b4:	90 91 01 01 	lds	r25, 0x0101
  b8:	0c 97       	sbiw	r24, 0x0c	; 12
  ba:	d0 f3       	brcs	.-12     	; 0xb0 <main+0x20>
            if(TCNT0 >= 52){
  bc:	86 b5       	in	r24, 0x26	; 38
  be:	84 33       	cpi	r24, 0x34	; 52
  c0:	b8 f3       	brcs	.-18     	; 0xb0 <main+0x20>
                PORTD ^= (1<<PD6);
  c2:	8b b1       	in	r24, 0x0b	; 11
  c4:	82 27       	eor	r24, r18
  c6:	8b b9       	out	0x0b, r24	; 11
                TCNT0 = 0;
  c8:	16 bc       	out	0x26, r1	; 38
                overflow = 0;
  ca:	10 92 01 01 	sts	0x0101, r1
  ce:	10 92 00 01 	sts	0x0100, r1
  d2:	ee cf       	rjmp	.-36     	; 0xb0 <main+0x20>

000000d4 <__vector_16>:
    }

    return 0;
}

ISR(TIMER0_OVF_vect){
  d4:	1f 92       	push	r1
  d6:	0f 92       	push	r0
  d8:	0f b6       	in	r0, 0x3f	; 63
  da:	0f 92       	push	r0
  dc:	11 24       	eor	r1, r1
  de:	8f 93       	push	r24
  e0:	9f 93       	push	r25
    overflow++;
  e2:	80 91 00 01 	lds	r24, 0x0100
  e6:	90 91 01 01 	lds	r25, 0x0101
  ea:	01 96       	adiw	r24, 0x01	; 1
  ec:	90 93 01 01 	sts	0x0101, r25
  f0:	80 93 00 01 	sts	0x0100, r24
}
  f4:	9f 91       	pop	r25
  f6:	8f 91       	pop	r24
  f8:	0f 90       	pop	r0
  fa:	0f be       	out	0x3f, r0	; 63
  fc:	0f 90       	pop	r0
  fe:	1f 90       	pop	r1
 100:	18 95       	reti

00000102 <_exit>:
 102:	f8 94       	cli

00000104 <__stop_program>:
 104:	ff cf       	rjmp	.-2      	; 0x104 <__stop_program>
